; Function Attrs: mustprogress uwtable
define void @_ZN2cv3hal5sub8sEPKamS2_mPamiiPv(ptr nocapture noundef readonly %0, i64 noundef %1, ptr nocapture noundef readonly %2, i64 noundef %3, ptr nocapture noundef writeonly %4, i64 noundef %5, i32 noundef %6, i32 noundef %7, ptr nocapture noundef readnone %8) local_unnamed_addr #0 personality ptr @__gxx_personality_v0 {
  %10 = alloca %"class.cv::utils::trace::details::Region", align 8
  %11 = alloca %"class.cv::utils::trace::details::Region", align 8
  call void @_ZN2cv5utils5trace7details6RegionC1ERKNS3_21LocationStaticStorageE(ptr noundef nonnull align 8 dereferenceable(12) %11, ptr noundef nonnull align 8 dereferenceable(32) @_ZZN2cv3hal5sub8sEPKamS2_mPamiiPvE25__cv_trace_location_fn542)
  call void @llvm.lifetime.start.p0(i64 16, ptr nonnull %10)
  invoke void @_ZN2cv5utils5trace7details6RegionC1ERKNS3_21LocationStaticStorageE(ptr noundef nonnull align 8 dereferenceable(12) %10, ptr noundef nonnull align 8 dereferenceable(32) @_ZZN2cv3hal12cpu_baseline5sub8sEPKamS3_mPamiiE25__cv_trace_location_fn542)
          to label %.noexc unwind label %37

.noexc:                                           ; preds = %9
  %.not23.i.i = icmp ne i32 %7, 0
  %12 = icmp sgt i32 %6, 0
  %or.cond.i.i = and i1 %12, %.not23.i.i
  br i1 %or.cond.i.i, label %.preheader.us.preheader.i.i, label %_ZN2cv3hal12cpu_baselineL8bin_loopINS1_6op_subEaNS_12hal_baseline5v_regIaLi16EEEEEvPKT0_mS9_mPS7_mii.exit.i

.preheader.us.preheader.i.i:                      ; preds = %.noexc
  %wide.trip.count.i.i = zext nneg i32 %6 to i64
  br label %.preheader.us.i.i

.preheader.us.i.i:                                ; preds = %._crit_edge.us.i.i, %.preheader.us.preheader.i.i
  %.in.i.i = phi i32 [ %20, %._crit_edge.us.i.i ], [ %7, %.preheader.us.preheader.i.i ]
  %.01926.us.i.i = phi ptr [ %21, %._crit_edge.us.i.i ], [ %0, %.preheader.us.preheader.i.i ]
  %.02025.us.i.i = phi ptr [ %23, %._crit_edge.us.i.i ], [ %4, %.preheader.us.preheader.i.i ]
  %.02124.us.i.i = phi ptr [ %22, %._crit_edge.us.i.i ], [ %2, %.preheader.us.preheader.i.i ]
  br label %13

13:                                               ; preds = %13, %.preheader.us.i.i
  %indvars.iv.i.i = phi i64 [ 0, %.preheader.us.i.i ], [ %indvars.iv.next.i.i, %13 ]
  %14 = getelementptr inbounds i8, ptr %.01926.us.i.i, i64 %indvars.iv.i.i
  %15 = load i8, ptr %14, align 1
  %16 = getelementptr inbounds i8, ptr %.02124.us.i.i, i64 %indvars.iv.i.i
  %17 = load i8, ptr %16, align 1
  %18 = call noundef i8 @llvm.ssub.sat.i8(i8 %15, i8 %17)
  %19 = getelementptr inbounds i8, ptr %.02025.us.i.i, i64 %indvars.iv.i.i
  store i8 %18, ptr %19, align 1
  %indvars.iv.next.i.i = add nuw nsw i64 %indvars.iv.i.i, 1
  %exitcond.not.i.i = icmp eq i64 %indvars.iv.next.i.i, %wide.trip.count.i.i
  br i1 %exitcond.not.i.i, label %._crit_edge.us.i.i, label %13, !llvm.loop !22

._crit_edge.us.i.i:                               ; preds = %13
  %20 = add nsw i32 %.in.i.i, -1
  %21 = getelementptr inbounds i8, ptr %.01926.us.i.i, i64 %1
  %22 = getelementptr inbounds i8, ptr %.02124.us.i.i, i64 %3
  %23 = getelementptr inbounds i8, ptr %.02025.us.i.i, i64 %5
  %.not.us.i.i = icmp eq i32 %20, 0
  br i1 %.not.us.i.i, label %_ZN2cv3hal12cpu_baselineL8bin_loopINS1_6op_subEaNS_12hal_baseline5v_regIaLi16EEEEEvPKT0_mS9_mPS7_mii.exit.i, label %.preheader.us.i.i, !llvm.loop !23

_ZN2cv3hal12cpu_baselineL8bin_loopINS1_6op_subEaNS_12hal_baseline5v_regIaLi16EEEEEvPKT0_mS9_mPS7_mii.exit.i: ; preds = %._crit_edge.us.i.i, %.noexc
  %24 = getelementptr inbounds i8, ptr %10, i64 8
  %25 = load i32, ptr %24, align 8
  %.not.i.i = icmp eq i32 %25, 0
  br i1 %.not.i.i, label %30, label %26

26:                                               ; preds = %_ZN2cv3hal12cpu_baselineL8bin_loopINS1_6op_subEaNS_12hal_baseline5v_regIaLi16EEEEEvPKT0_mS9_mPS7_mii.exit.i
  invoke void @_ZN2cv5utils5trace7details6Region7destroyEv(ptr noundef nonnull align 8 dereferenceable(12) %10)
          to label %30 unwind label %27

27:                                               ; preds = %26
  %28 = landingpad { ptr, i32 }
          catch ptr null
  %29 = extractvalue { ptr, i32 } %28, 0
  call void @__clang_call_terminate(ptr %29) #11
  unreachable

30:                                               ; preds = %26, %_ZN2cv3hal12cpu_baselineL8bin_loopINS1_6op_subEaNS_12hal_baseline5v_regIaLi16EEEEEvPKT0_mS9_mPS7_mii.exit.i
  call void @llvm.lifetime.end.p0(i64 16, ptr nonnull %10)
  %31 = getelementptr inbounds i8, ptr %11, i64 8
  %32 = load i32, ptr %31, align 8
  %.not.i = icmp eq i32 %32, 0
  br i1 %.not.i, label %_ZN2cv5utils5trace7details6RegionD2Ev.exit, label %33

33:                                               ; preds = %30
  invoke void @_ZN2cv5utils5trace7details6Region7destroyEv(ptr noundef nonnull align 8 dereferenceable(12) %11)
          to label %_ZN2cv5utils5trace7details6RegionD2Ev.exit unwind label %34

34:                                               ; preds = %33
  %35 = landingpad { ptr, i32 }
          catch ptr null
  %36 = extractvalue { ptr, i32 } %35, 0
  call void @__clang_call_terminate(ptr %36) #11
  unreachable

_ZN2cv5utils5trace7details6RegionD2Ev.exit:       ; preds = %30, %33
  ret void

37:                                               ; preds = %9
  %38 = landingpad { ptr, i32 }
          cleanup
  call void @_ZN2cv5utils5trace7details6RegionD2Ev(ptr noundef nonnull align 8 dereferenceable(12) %11) #12
  resume { ptr, i32 } %38
}